; ModuleID = 'source-C-CXX/51/2081.c'
source_filename = "source-C-CXX/51/2081.c"
target datalayout = "e-m:e-p270:32:32-p271:32:32-p272:64:64-i64:64-f80:128-n8:16:32:64-S128"
target triple = "x86_64-pc-linux-gnu"

@.str = private unnamed_addr constant [5 x i8] c"%d%d\00", align 1
@.str.1 = private unnamed_addr constant [3 x i8] c"%d\00", align 1
@.str.2 = private unnamed_addr constant [4 x i8] c"%d \00", align 1
@.str.3 = private unnamed_addr constant [4 x i8] c"%d\0A\00", align 1

; Function Attrs: nofree nounwind sspstrong uwtable
define dso_local void @main() local_unnamed_addr #0 {
  %1 = alloca [20 x i32], align 16
  %2 = alloca i32, align 4
  %3 = alloca i32, align 4
  %4 = bitcast [20 x i32]* %1 to i8*
  call void @llvm.lifetime.start.p0i8(i64 80, i8* nonnull %4) #3
  %5 = bitcast i32* %2 to i8*
  call void @llvm.lifetime.start.p0i8(i64 4, i8* nonnull %5) #3
  %6 = bitcast i32* %3 to i8*
  call void @llvm.lifetime.start.p0i8(i64 4, i8* nonnull %6) #3
  %7 = call i32 (i8*, ...) @__isoc99_scanf(i8* getelementptr inbounds ([5 x i8], [5 x i8]* @.str, i64 0, i64 0), i32* nonnull %3, i32* nonnull %2)
  %8 = load i32, i32* %3, align 4, !tbaa !5
  %9 = icmp slt i32 %8, 1
  br i1 %9, label %18, label %10

10:                                               ; preds = %0, %10
  %11 = phi i64 [ %14, %10 ], [ 1, %0 ]
  %12 = getelementptr inbounds [20 x i32], [20 x i32]* %1, i64 0, i64 %11
  %13 = call i32 (i8*, ...) @__isoc99_scanf(i8* getelementptr inbounds ([3 x i8], [3 x i8]* @.str.1, i64 0, i64 0), i32* nonnull %12)
  %14 = add nuw nsw i64 %11, 1
  %15 = load i32, i32* %3, align 4, !tbaa !5
  %16 = sext i32 %15 to i64
  %17 = icmp slt i64 %11, %16
  br i1 %17, label %10, label %18, !llvm.loop !9

18:                                               ; preds = %10, %0
  %19 = phi i32 [ %8, %0 ], [ %15, %10 ]
  %20 = sext i32 %19 to i64
  %21 = load i32, i32* %2, align 4, !tbaa !5
  %22 = getelementptr inbounds [20 x i32], [20 x i32]* %1, i64 0, i64 %20
  %23 = sext i32 %21 to i64
  %24 = sub nsw i64 %20, %23
  %25 = getelementptr inbounds [20 x i32], [20 x i32]* %1, i64 0, i64 %24
  %26 = getelementptr inbounds i32, i32* %25, i64 1
  %27 = icmp ugt i32* %26, %22
  br i1 %27, label %28, label %31

28:                                               ; preds = %31, %18
  %29 = getelementptr inbounds [20 x i32], [20 x i32]* %1, i64 0, i64 1
  %30 = icmp sgt i64 %24, 1
  br i1 %30, label %37, label %43

31:                                               ; preds = %18, %31
  %32 = phi i32* [ %35, %31 ], [ %26, %18 ]
  %33 = load i32, i32* %32, align 4, !tbaa !5
  %34 = call i32 (i8*, ...) @printf(i8* nonnull dereferenceable(1) getelementptr inbounds ([4 x i8], [4 x i8]* @.str.2, i64 0, i64 0), i32 %33) #3
  %35 = getelementptr inbounds i32, i32* %32, i64 1
  %36 = icmp ugt i32* %35, %22
  br i1 %36, label %28, label %31, !llvm.loop !11

37:                                               ; preds = %28, %37
  %38 = phi i32* [ %41, %37 ], [ %29, %28 ]
  %39 = load i32, i32* %38, align 4, !tbaa !5
  %40 = call i32 (i8*, ...) @printf(i8* nonnull dereferenceable(1) getelementptr inbounds ([4 x i8], [4 x i8]* @.str.2, i64 0, i64 0), i32 %39) #3
  %41 = getelementptr inbounds i32, i32* %38, i64 1
  %42 = icmp ult i32* %41, %25
  br i1 %42, label %37, label %43, !llvm.loop !12

43:                                               ; preds = %37, %28
  %44 = phi i32* [ %29, %28 ], [ %41, %37 ]
  %45 = load i32, i32* %44, align 4, !tbaa !5
  %46 = call i32 (i8*, ...) @printf(i8* nonnull dereferenceable(1) getelementptr inbounds ([4 x i8], [4 x i8]* @.str.3, i64 0, i64 0), i32 %45) #3
  call void @llvm.lifetime.end.p0i8(i64 4, i8* nonnull %6) #3
  call void @llvm.lifetime.end.p0i8(i64 4, i8* nonnull %5) #3
  call void @llvm.lifetime.end.p0i8(i64 80, i8* nonnull %4) #3
  ret void
}

; Function Attrs: argmemonly mustprogress nofree nosync nounwind willreturn
declare void @llvm.lifetime.start.p0i8(i64 immarg, i8* nocapture) #1

; Function Attrs: nofree nounwind
declare noundef i32 @__isoc99_scanf(i8* nocapture noundef readonly, ...) local_unnamed_addr #2

; Function Attrs: nofree nounwind sspstrong uwtable
define dso_local void @tz(i32* readonly %0, i32 %1, i32 %2) local_unnamed_addr #0 {
  %4 = sext i32 %1 to i64
  %5 = getelementptr inbounds i32, i32* %0, i64 %4
  %6 = sext i32 %2 to i64
  %7 = sub nsw i64 %4, %6
  %8 = getelementptr inbounds i32, i32* %0, i64 %7
  %9 = getelementptr inbounds i32, i32* %8, i64 1
  %10 = icmp ugt i32* %9, %5
  br i1 %10, label %11, label %14

11:                                               ; preds = %14, %3
  %12 = getelementptr inbounds i32, i32* %0, i64 1
  %13 = icmp sgt i64 %7, 1
  br i1 %13, label %20, label %26

14:                                               ; preds = %3, %14
  %15 = phi i32* [ %18, %14 ], [ %9, %3 ]
  %16 = load i32, i32* %15, align 4, !tbaa !5
  %17 = tail call i32 (i8*, ...) @printf(i8* nonnull dereferenceable(1) getelementptr inbounds ([4 x i8], [4 x i8]* @.str.2, i64 0, i64 0), i32 %16)
  %18 = getelementptr inbounds i32, i32* %15, i64 1
  %19 = icmp ugt i32* %18, %5
  br i1 %19, label %11, label %14, !llvm.loop !11

20:                                               ; preds = %11, %20
  %21 = phi i32* [ %24, %20 ], [ %12, %11 ]
  %22 = load i32, i32* %21, align 4, !tbaa !5
  %23 = tail call i32 (i8*, ...) @printf(i8* nonnull dereferenceable(1) getelementptr inbounds ([4 x i8], [4 x i8]* @.str.2, i64 0, i64 0), i32 %22)
  %24 = getelementptr inbounds i32, i32* %21, i64 1
  %25 = icmp ult i32* %24, %8
  br i1 %25, label %20, label %26, !llvm.loop !12

26:                                               ; preds = %20, %11
  %27 = phi i32* [ %12, %11 ], [ %24, %20 ]
  %28 = load i32, i32* %27, align 4, !tbaa !5
  %29 = tail call i32 (i8*, ...) @printf(i8* nonnull dereferenceable(1) getelementptr inbounds ([4 x i8], [4 x i8]* @.str.3, i64 0, i64 0), i32 %28)
  ret void
}

; Function Attrs: argmemonly mustprogress nofree nosync nounwind willreturn
declare void @llvm.lifetime.end.p0i8(i64 immarg, i8* nocapture) #1

; Function Attrs: nofree nounwind
declare noundef i32 @printf(i8* nocapture noundef readonly, ...) local_unnamed_addr #2


!llvm.module.flags = !{!0, !1, !2, !3}
!llvm.ident = !{!4}

!0 = !{i32 1, !"wchar_size", i32 4}
!1 = !{i32 7, !"PIC Level", i32 2}
!2 = !{i32 7, !"PIE Level", i32 2}
!3 = !{i32 7, !"uwtable", i32 1}
!4 = !{!"clang version 13.0.0"}
!5 = !{!6, !6, i64 0}
!6 = !{!"int", !7, i64 0}
!7 = !{!"omnipotent char", !8, i64 0}
!8 = !{!"Simple C/C++ TBAA"}
!9 = distinct !{!9, !10}
!10 = !{!"llvm.loop.mustprogress"}
!11 = distinct !{!11, !10}
!12 = distinct !{!12, !10}
